target datalayout = "e-m:e-p270:32:32-p271:32:32-p272:64:64-i64:64-i128:128-f80:128-n8:16:32:64-S128"
target triple = "x86_64-pc-linux-gnu"

%struct.pmix_object_t = type { %union.pthread_mutex_t, ptr, i32, %struct.pmix_tma }
%struct.pmix_tma = type { ptr, ptr, ptr, ptr, ptr, ptr, ptr, ptr }
%union.pthread_mutex_t = type { %struct.__pthread_mutex_s }
%struct.__pthread_mutex_s = type { i32, i32, i32, i32, i32, i16, i16, %struct.__pthread_internal_list }
%struct.__pthread_internal_list = type { ptr, ptr }
%struct.pmix_globals_t = type { i32, %struct.pmix_proc, %struct.pmix_value, %struct.pmix_value, ptr, i32, i32, ptr, i32, i32, i32, i32, i32, ptr, ptr, i32, %struct.pmix_events_t, i8, i8, %struct.timeval, %struct.pmix_list_t, %struct.pmix_pointer_array_t, i32, i32, %struct.pmix_hotel_t, i8, %struct.pmix_list_t, i8, i8, i8, i64, %struct.pmix_list_t, %struct.pmix_topology_t, %struct.pmix_cpuset_t, i8, i8, %struct.pmix_iof_flags_t, %struct.pmix_keyindex_t }
%struct.pmix_proc = type { [256 x i8], i32 }
%struct.pmix_value = type { i16, %union.anon }
%union.anon = type { %struct.pmix_envar_t }
%struct.pmix_envar_t = type { ptr, ptr, i8 }
%struct.pmix_events_t = type { %struct.pmix_object_t, i64, ptr, ptr, %struct.pmix_list_t, %struct.pmix_list_t, %struct.pmix_list_t, %struct.pmix_list_t }
%struct.timeval = type { i64, i64 }
%struct.pmix_pointer_array_t = type { %struct.pmix_object_t, i32, i32, i32, i32, i32, ptr, ptr }
%struct.pmix_hotel_t = type { %struct.pmix_object_t, i32, ptr, %struct.timeval, ptr, ptr, ptr, ptr, i32 }
%struct.pmix_list_t = type { %struct.pmix_object_t, %struct.pmix_list_item_t, i64 }
%struct.pmix_list_item_t = type { %struct.pmix_object_t, ptr, ptr, i32 }
%struct.pmix_topology_t = type { ptr, ptr }
%struct.pmix_cpuset_t = type { ptr, ptr }
%struct.pmix_iof_flags_t = type { i8, i8, i8, i8, i8, i8, i8, ptr, ptr, i8, i8, i8, i8, i8, i8 }
%struct.pmix_keyindex_t = type { %struct.pmix_object_t, ptr, i32 }
%struct.pmix_peer_t = type { %struct.pmix_object_t, ptr, ptr, %struct.pmix_proc_type_t, i16, i32, i32, i32, i8, %struct.event, i8, %struct.event, i8, %struct.pmix_list_t, ptr, ptr, i32, %struct.pmix_epilog_t }
%struct.pmix_proc_type_t = type { i32, i8, i8, i8, i8 }
%struct.event = type { %struct.event_callback, %union.anon.2, i32, ptr, %union.anon.4, i16, i16, %struct.timeval }
%struct.event_callback = type { %struct.anon.0, i16, i8, i8, %union.anon.1, ptr }
%struct.anon.0 = type { ptr, ptr }
%union.anon.1 = type { ptr }
%union.anon.2 = type { %struct.anon.3 }
%struct.anon.3 = type { ptr, ptr }
%union.anon.4 = type { %struct.anon.5 }
%struct.anon.5 = type { %struct.anon.6, %struct.timeval }
%struct.anon.6 = type { ptr, ptr }
%struct.pmix_epilog_t = type { i32, i32, %struct.pmix_list_t, %struct.pmix_list_t, %struct.pmix_list_t }
%struct.pmix_event_chain_t = type { %struct.pmix_list_item_t, i32, %struct.event, i8, i8, i8, i8, %struct.pmix_proc, i8, ptr, i64, ptr, i64, ptr, i64, i64, i32, ptr, i64, ptr, i64, ptr, ptr, ptr, ptr, ptr }

@pmix_globals = external global %struct.pmix_globals_t, align 8

; Function Attrs: inlinehint nounwind uwtable
define internal ptr @pmix_list_remove_item(ptr noundef %0, ptr noundef %1) #2 {
  %3 = alloca ptr, align 8
  %4 = alloca ptr, align 8
  store ptr %0, ptr %3, align 8, !tbaa !259
  store ptr %1, ptr %4, align 8, !tbaa !254
  %5 = load ptr, ptr %4, align 8, !tbaa !254
  %6 = getelementptr inbounds nuw %struct.pmix_list_item_t, ptr %5, i32 0, i32 1
  %7 = load ptr, ptr %6, align 8, !tbaa !189
  %8 = load ptr, ptr %4, align 8, !tbaa !254
  %9 = getelementptr inbounds nuw %struct.pmix_list_item_t, ptr %8, i32 0, i32 2
  %10 = load ptr, ptr %9, align 8, !tbaa !261
  %11 = getelementptr inbounds nuw %struct.pmix_list_item_t, ptr %10, i32 0, i32 1
  store volatile ptr %7, ptr %11, align 8, !tbaa !189
  %12 = load ptr, ptr %4, align 8, !tbaa !254
  %13 = getelementptr inbounds nuw %struct.pmix_list_item_t, ptr %12, i32 0, i32 2
  %14 = load ptr, ptr %13, align 8, !tbaa !261
  %15 = load ptr, ptr %4, align 8, !tbaa !254
  %16 = getelementptr inbounds nuw %struct.pmix_list_item_t, ptr %15, i32 0, i32 1
  %17 = load ptr, ptr %16, align 8, !tbaa !189
  %18 = getelementptr inbounds nuw %struct.pmix_list_item_t, ptr %17, i32 0, i32 2
  store volatile ptr %14, ptr %18, align 8, !tbaa !261
  %19 = load ptr, ptr %3, align 8, !tbaa !259
  %20 = getelementptr inbounds nuw %struct.pmix_list_t, ptr %19, i32 0, i32 2
  %21 = load volatile i64, ptr %20, align 8, !tbaa !262
  %22 = add i64 %21, -1
  store volatile i64 %22, ptr %20, align 8, !tbaa !262
  %23 = load ptr, ptr %4, align 8, !tbaa !254
  %24 = getelementptr inbounds nuw %struct.pmix_list_item_t, ptr %23, i32 0, i32 2
  %25 = load ptr, ptr %24, align 8, !tbaa !261
  ret ptr %25
}

; Function Attrs: inlinehint nounwind uwtable
define internal void @pmix_atomic_rmb() #2 {
  fence acquire
  ret void
}

; Function Attrs: nounwind uwtable
define void @pmix_event_timeout_cb(i32 noundef %0, i16 noundef signext %1, ptr noundef %2) #0 {
  %4 = alloca i32, align 4
  %5 = alloca i16, align 2
  %6 = alloca ptr, align 8
  %7 = alloca ptr, align 8
  store i32 %0, ptr %4, align 4, !tbaa !3
  store i16 %1, ptr %5, align 2, !tbaa !218
  store ptr %2, ptr %6, align 8, !tbaa !15
  call void @llvm.lifetime.start.p0(i64 8, ptr %7) #13
  %8 = load ptr, ptr %6, align 8, !tbaa !15
  store ptr %8, ptr %7, align 8, !tbaa !86
  call void @pmix_atomic_rmb()
  %9 = load ptr, ptr %7, align 8, !tbaa !86
  %10 = getelementptr inbounds nuw %struct.pmix_event_chain_t, ptr %9, i32 0, i32 3
  store i8 0, ptr %10, align 8, !tbaa !258
  %11 = load ptr, ptr %7, align 8, !tbaa !86
  %12 = getelementptr inbounds nuw %struct.pmix_event_chain_t, ptr %11, i32 0, i32 0
  %13 = call ptr @pmix_list_remove_item(ptr noundef getelementptr inbounds nuw (%struct.pmix_globals_t, ptr @pmix_globals, i32 0, i32 20), ptr noundef %12)
  %14 = load ptr, ptr getelementptr inbounds nuw (%struct.pmix_globals_t, ptr @pmix_globals, i32 0, i32 4), align 8, !tbaa !48
  %15 = getelementptr inbounds nuw %struct.pmix_peer_t, ptr %14, i32 0, i32 3
  %16 = getelementptr inbounds nuw %struct.pmix_proc_type_t, ptr %15, i32 0, i32 0
  %17 = load i32, ptr %16, align 8, !tbaa !49
  %18 = and i32 2, %17
  %19 = icmp ne i32 %18, 0
  br i1 %19, label %20, label %49

20:                                               ; preds = %3
  %21 = load ptr, ptr getelementptr inbounds nuw (%struct.pmix_globals_t, ptr @pmix_globals, i32 0, i32 4), align 8, !tbaa !48
  %22 = getelementptr inbounds nuw %struct.pmix_peer_t, ptr %21, i32 0, i32 3
  %23 = getelementptr inbounds nuw %struct.pmix_proc_type_t, ptr %22, i32 0, i32 0
  %24 = load i32, ptr %23, align 8, !tbaa !49
  %25 = and i32 268435456, %24
  %26 = icmp ne i32 %25, 0
  br i1 %26, label %49, label %27

27:                                               ; preds = %20
  %28 = load ptr, ptr %7, align 8, !tbaa !86
  %29 = getelementptr inbounds nuw %struct.pmix_event_chain_t, ptr %28, i32 0, i32 1
  %30 = load i32, ptr %29, align 8, !tbaa !106
  %31 = load ptr, ptr %7, align 8, !tbaa !86
  %32 = getelementptr inbounds nuw %struct.pmix_event_chain_t, ptr %31, i32 0, i32 7
  %33 = load ptr, ptr %7, align 8, !tbaa !86
  %34 = getelementptr inbounds nuw %struct.pmix_event_chain_t, ptr %33, i32 0, i32 8
  %35 = load i8, ptr %34, align 8, !tbaa !108
  %36 = load ptr, ptr %7, align 8, !tbaa !86
  %37 = getelementptr inbounds nuw %struct.pmix_event_chain_t, ptr %36, i32 0, i32 13
  %38 = load ptr, ptr %37, align 8, !tbaa !110
  %39 = load ptr, ptr %7, align 8, !tbaa !86
  %40 = getelementptr inbounds nuw %struct.pmix_event_chain_t, ptr %39, i32 0, i32 14
  %41 = load i64, ptr %40, align 8, !tbaa !112
  %42 = load ptr, ptr %7, align 8, !tbaa !86
  %43 = getelementptr inbounds nuw %struct.pmix_event_chain_t, ptr %42, i32 0, i32 24
  %44 = load ptr, ptr %43, align 8, !tbaa !199
  %45 = load ptr, ptr %7, align 8, !tbaa !86
  %46 = getelementptr inbounds nuw %struct.pmix_event_chain_t, ptr %45, i32 0, i32 25
  %47 = load ptr, ptr %46, align 8, !tbaa !200
  %48 = call i32 @pmix_server_notify_client_of_event(i32 noundef %30, ptr noundef %32, i8 noundef zeroext %35, ptr noundef %38, i64 noundef %41, ptr noundef %44, ptr noundef %47)
  br label %51

49:                                               ; preds = %20, %3
  %50 = load ptr, ptr %7, align 8, !tbaa !86
  call void @pmix_invoke_local_event_hdlr(ptr noundef %50)
  br label %51

51:                                               ; preds = %49, %27
  call void @llvm.lifetime.end.p0(i64 8, ptr %7) #13
  ret void
}