; Function Attrs: nounwind uwtable
define void @pmix_event_timeout_cb(i32 noundef %0, i16 noundef signext %1, ptr noundef initializes((280, 281)) %2) local_unnamed_addr #0 {
  fence acquire
  %4 = getelementptr inbounds nuw i8, ptr %2, i64 280
  store i8 0, ptr %4, align 8, !tbaa !229
  %5 = getelementptr inbounds nuw i8, ptr %2, i64 120
  %6 = load ptr, ptr %5, align 8, !tbaa !169
  %7 = getelementptr inbounds nuw i8, ptr %2, i64 128
  %8 = load ptr, ptr %7, align 8, !tbaa !212
  %9 = getelementptr inbounds nuw i8, ptr %8, i64 120
  store volatile ptr %6, ptr %9, align 8, !tbaa !169
  %10 = getelementptr inbounds nuw i8, ptr %6, i64 128
  store volatile ptr %8, ptr %10, align 8, !tbaa !212
  %11 = load volatile i64, ptr getelementptr inbounds nuw (i8, ptr @pmix_globals, i64 1920), align 8, !tbaa !201
  %12 = add i64 %11, -1
  store volatile i64 %12, ptr getelementptr inbounds nuw (i8, ptr @pmix_globals, i64 1920), align 8, !tbaa !201
  %13 = load ptr, ptr getelementptr inbounds nuw (i8, ptr @pmix_globals, i64 328), align 8, !tbaa !40
  %14 = getelementptr inbounds nuw i8, ptr %13, i64 136
  %15 = load i32, ptr %14, align 8, !tbaa !41
  %16 = and i32 %15, 268435458
  %or.cond = icmp eq i32 %16, 2
  br i1 %or.cond, label %17, label %32

17:                                               ; preds = %3
  %18 = getelementptr inbounds nuw i8, ptr %2, i64 144
  %19 = load i32, ptr %18, align 8, !tbaa !106
  %20 = getelementptr inbounds nuw i8, ptr %2, i64 284
  %21 = getelementptr inbounds nuw i8, ptr %2, i64 544
  %22 = load i8, ptr %21, align 8, !tbaa !108
  %23 = getelementptr inbounds nuw i8, ptr %2, i64 584
  %24 = load ptr, ptr %23, align 8, !tbaa !110
  %25 = getelementptr inbounds nuw i8, ptr %2, i64 592
  %26 = load i64, ptr %25, align 8, !tbaa !112
  %27 = getelementptr inbounds nuw i8, ptr %2, i64 672
  %28 = load ptr, ptr %27, align 8, !tbaa !177
  %29 = getelementptr inbounds nuw i8, ptr %2, i64 680
  %30 = load ptr, ptr %29, align 8, !tbaa !178
  %31 = tail call i32 @pmix_server_notify_client_of_event(i32 noundef %19, ptr noundef nonnull %20, i8 noundef zeroext %22, ptr noundef %24, i64 noundef %26, ptr noundef %28, ptr noundef %30)
  br label %33

32:                                               ; preds = %3
  tail call void @pmix_invoke_local_event_hdlr(ptr noundef nonnull %2)
  br label %33

33:                                               ; preds = %32, %17
  ret void
}